; Function Attrs: nofree norecurse nosync nounwind memory(argmem: readwrite) uwtable
define internal void @avg_rv40_qpel8_mc33_c(ptr noundef captures(none) %0, ptr noundef readonly captures(none) %1, i64 noundef %2) #3 {
  %.neg = mul i64 %2, -9
  %4 = shl nsw i64 %2, 3
  %5 = sub nsw i64 4, %4
  br label %6

6:                                                ; preds = %68, %3
  %.067.i = phi ptr [ %0, %3 ], [ %71, %68 ]
  %.05066.i = phi ptr [ %1, %3 ], [ %70, %68 ]
  %7 = phi i1 [ true, %3 ], [ false, %68 ]
  %8 = load i32, ptr %.05066.i, align 1, !tbaa !8
  %9 = getelementptr inbounds nuw i8, ptr %.05066.i, i64 1
  %10 = load i32, ptr %9, align 1, !tbaa !8
  %11 = and i32 %8, 50529027
  %12 = and i32 %10, 50529027
  %13 = add nuw nsw i32 %11, 33686018
  %14 = add nuw nsw i32 %13, %12
  %15 = lshr i32 %8, 2
  %16 = and i32 %15, 1061109567
  %17 = lshr i32 %10, 2
  %18 = and i32 %17, 1061109567
  %narrow.i = add nuw nsw i32 %18, %16
  %.15159.i = getelementptr inbounds i8, ptr %.05066.i, i64 %2
  br label %19

19:                                               ; preds = %19, %6
  %.15164.i = phi ptr [ %.15159.i, %6 ], [ %.151.i, %19 ]
  %.163.i = phi ptr [ %.067.i, %6 ], [ %65, %19 ]
  %.05362.i = phi i32 [ 0, %6 ], [ %66, %19 ]
  %.05461.i = phi i32 [ %narrow.i, %6 ], [ %narrow58.i, %19 ]
  %.05560.i = phi i32 [ %14, %6 ], [ %49, %19 ]
  %20 = load i32, ptr %.15164.i, align 1, !tbaa !8
  %21 = getelementptr inbounds nuw i8, ptr %.15164.i, i64 1
  %22 = load i32, ptr %21, align 1, !tbaa !8
  %23 = and i32 %20, 50529027
  %24 = and i32 %22, 50529027
  %25 = add nuw nsw i32 %24, %23
  %26 = lshr i32 %20, 2
  %27 = and i32 %26, 1061109567
  %28 = lshr i32 %22, 2
  %29 = and i32 %28, 1061109567
  %narrow57.i = add nuw nsw i32 %29, %27
  %30 = load i32, ptr %.163.i, align 4, !tbaa !9
  %31 = add nuw i32 %narrow57.i, %.05461.i
  %32 = add nuw nsw i32 %25, %.05560.i
  %33 = lshr i32 %32, 2
  %34 = and i32 %33, 252645135
  %35 = add i32 %31, %34
  %36 = or i32 %35, %30
  %37 = xor i32 %35, %30
  %38 = lshr i32 %37, 1
  %39 = and i32 %38, 2139062143
  %40 = sub i32 %36, %39
  store i32 %40, ptr %.163.i, align 4, !tbaa !9
  %41 = getelementptr inbounds i8, ptr %.15164.i, i64 %2
  %42 = getelementptr inbounds i8, ptr %.163.i, i64 %2
  %43 = load i32, ptr %41, align 1, !tbaa !8
  %44 = getelementptr inbounds nuw i8, ptr %41, i64 1
  %45 = load i32, ptr %44, align 1, !tbaa !8
  %46 = and i32 %43, 50529027
  %47 = and i32 %45, 50529027
  %48 = add nuw nsw i32 %46, 33686018
  %49 = add nuw nsw i32 %48, %47
  %50 = lshr i32 %43, 2
  %51 = and i32 %50, 1061109567
  %52 = lshr i32 %45, 2
  %53 = and i32 %52, 1061109567
  %narrow58.i = add nuw nsw i32 %53, %51
  %54 = load i32, ptr %42, align 4, !tbaa !9
  %55 = add nuw i32 %narrow58.i, %narrow57.i
  %56 = add nuw nsw i32 %49, %25
  %57 = lshr i32 %56, 2
  %58 = and i32 %57, 117901063
  %59 = add i32 %55, %58
  %60 = or i32 %59, %54
  %61 = xor i32 %59, %54
  %62 = lshr i32 %61, 1
  %63 = and i32 %62, 2139062143
  %64 = sub i32 %60, %63
  store i32 %64, ptr %42, align 4, !tbaa !9
  %65 = getelementptr inbounds i8, ptr %42, i64 %2
  %66 = add nuw nsw i32 %.05362.i, 2
  %.151.i = getelementptr inbounds i8, ptr %41, i64 %2
  %67 = icmp samesign ult i32 %.05362.i, 6
  br i1 %67, label %19, label %68, !llvm.loop !14

68:                                               ; preds = %19
  %69 = getelementptr i8, ptr %.151.i, i64 %.neg
  %70 = getelementptr i8, ptr %69, i64 4
  %71 = getelementptr inbounds i8, ptr %65, i64 %5
  br i1 %7, label %6, label %avg_pixels8_xy2_8_c.exit, !llvm.loop !15

avg_pixels8_xy2_8_c.exit:                         ; preds = %68
  ret void
}